; Function Attrs: mustprogress nofree nounwind willreturn memory(write) uwtable
define hidden noundef double @_ZN6hermes2vm11minFromTimeEd(double noundef %t) local_unnamed_addr #4 {
entry:
  %div = fdiv double %t, 6.000000e+04
  %0 = tail call double @llvm.floor.f64(double %div)
  %call.i = tail call double @fmod(double noundef %0, double noundef 6.000000e+01) #17
  %cmp.i = fcmp olt double %call.i, 0.000000e+00
  %add.i = fadd double %call.i, 6.000000e+01
  %cond.i = select i1 %cmp.i, double %add.i, double %call.i
  ret double %cond.i
}